; ModuleID = '31/1459.c'
source_filename = "31/1459.c"
target datalayout = "e-m:e-p270:32:32-p271:32:32-p272:64:64-i64:64-f80:128-n8:16:32:64-S128"
target triple = "x86_64-pc-linux-gnu"

%struct.student = type { [10 x i8], [20 x i8], i8, i32, [10 x i8], [30 x i8], %struct.student* }

@.str = private unnamed_addr constant [3 x i8] c"%s\00", align 1
@.str.1 = private unnamed_addr constant [4 x i8] c"end\00", align 1
@.str.2 = private unnamed_addr constant [16 x i8] c" %s %c %d %s %s\00", align 1
@.str.3 = private unnamed_addr constant [19 x i8] c"%s %s %c %d %s %s\0A\00", align 1

; Function Attrs: noinline nounwind uwtable
define dso_local void @main() #0 {
  %1 = alloca %struct.student*, align 8
  %2 = alloca %struct.student*, align 8
  %3 = alloca %struct.student*, align 8
  %4 = alloca %struct.student*, align 8
  %5 = alloca %struct.student*, align 8
  store %struct.student* null, %struct.student** %2, align 8
  store %struct.student* null, %struct.student** %4, align 8
  br label %6

6:                                                ; preds = %0, %38
  %7 = call noalias i8* @malloc(i64 100) #4
  %8 = bitcast i8* %7 to %struct.student*
  store %struct.student* %8, %struct.student** %3, align 8
  %9 = load %struct.student*, %struct.student** %3, align 8
  %10 = getelementptr inbounds %struct.student, %struct.student* %9, i32 0, i32 0
  %11 = call i32 (i8*, ...) @__isoc99_scanf(i8* getelementptr inbounds ([3 x i8], [3 x i8]* @.str, i64 0, i64 0), [10 x i8]* %10)
  %12 = load %struct.student*, %struct.student** %3, align 8
  %13 = getelementptr inbounds %struct.student, %struct.student* %12, i32 0, i32 0
  %14 = getelementptr inbounds [10 x i8], [10 x i8]* %13, i64 0, i64 0
  %15 = call i32 @strcmp(i8* %14, i8* getelementptr inbounds ([4 x i8], [4 x i8]* @.str.1, i64 0, i64 0)) #5
  %16 = icmp eq i32 %15, 0
  br i1 %16, label %17, label %18

17:                                               ; preds = %6
  br label %40

18:                                               ; preds = %6
  %19 = load %struct.student*, %struct.student** %3, align 8
  %20 = getelementptr inbounds %struct.student, %struct.student* %19, i32 0, i32 1
  %21 = load %struct.student*, %struct.student** %3, align 8
  %22 = getelementptr inbounds %struct.student, %struct.student* %21, i32 0, i32 2
  %23 = load %struct.student*, %struct.student** %3, align 8
  %24 = getelementptr inbounds %struct.student, %struct.student* %23, i32 0, i32 3
  %25 = load %struct.student*, %struct.student** %3, align 8
  %26 = getelementptr inbounds %struct.student, %struct.student* %25, i32 0, i32 4
  %27 = load %struct.student*, %struct.student** %3, align 8
  %28 = getelementptr inbounds %struct.student, %struct.student* %27, i32 0, i32 5
  %29 = call i32 (i8*, ...) @__isoc99_scanf(i8* getelementptr inbounds ([16 x i8], [16 x i8]* @.str.2, i64 0, i64 0), [20 x i8]* %20, i8* %22, i32* %24, [10 x i8]* %26, [30 x i8]* %28)
  %30 = load %struct.student*, %struct.student** %2, align 8
  %31 = icmp eq %struct.student* %30, null
  br i1 %31, label %32, label %34

32:                                               ; preds = %18
  %33 = load %struct.student*, %struct.student** %3, align 8
  store %struct.student* %33, %struct.student** %2, align 8
  br label %38

34:                                               ; preds = %18
  %35 = load %struct.student*, %struct.student** %4, align 8
  %36 = load %struct.student*, %struct.student** %3, align 8
  %37 = getelementptr inbounds %struct.student, %struct.student* %36, i32 0, i32 6
  store %struct.student* %35, %struct.student** %37, align 8
  br label %38

38:                                               ; preds = %34, %32
  %39 = load %struct.student*, %struct.student** %3, align 8
  store %struct.student* %39, %struct.student** %4, align 8
  br label %6

40:                                               ; preds = %17
  %41 = load %struct.student*, %struct.student** %4, align 8
  store %struct.student* %41, %struct.student** %1, align 8
  %42 = load %struct.student*, %struct.student** %1, align 8
  store %struct.student* %42, %struct.student** %5, align 8
  %43 = load %struct.student*, %struct.student** %1, align 8
  %44 = icmp ne %struct.student* %43, null
  br i1 %44, label %45, label %74

45:                                               ; preds = %40
  br label %46

46:                                               ; preds = %70, %45
  %47 = load %struct.student*, %struct.student** %5, align 8
  %48 = getelementptr inbounds %struct.student, %struct.student* %47, i32 0, i32 0
  %49 = getelementptr inbounds [10 x i8], [10 x i8]* %48, i64 0, i64 0
  %50 = load %struct.student*, %struct.student** %5, align 8
  %51 = getelementptr inbounds %struct.student, %struct.student* %50, i32 0, i32 1
  %52 = getelementptr inbounds [20 x i8], [20 x i8]* %51, i64 0, i64 0
  %53 = load %struct.student*, %struct.student** %5, align 8
  %54 = getelementptr inbounds %struct.student, %struct.student* %53, i32 0, i32 2
  %55 = load i8, i8* %54, align 2
  %56 = sext i8 %55 to i32
  %57 = load %struct.student*, %struct.student** %5, align 8
  %58 = getelementptr inbounds %struct.student, %struct.student* %57, i32 0, i32 3
  %59 = load i32, i32* %58, align 8
  %60 = load %struct.student*, %struct.student** %5, align 8
  %61 = getelementptr inbounds %struct.student, %struct.student* %60, i32 0, i32 4
  %62 = getelementptr inbounds [10 x i8], [10 x i8]* %61, i64 0, i64 0
  %63 = load %struct.student*, %struct.student** %5, align 8
  %64 = getelementptr inbounds %struct.student, %struct.student* %63, i32 0, i32 5
  %65 = getelementptr inbounds [30 x i8], [30 x i8]* %64, i64 0, i64 0
  %66 = call i32 (i8*, ...) @printf(i8* getelementptr inbounds ([19 x i8], [19 x i8]* @.str.3, i64 0, i64 0), i8* %49, i8* %52, i32 %56, i32 %59, i8* %62, i8* %65)
  %67 = load %struct.student*, %struct.student** %5, align 8
  %68 = getelementptr inbounds %struct.student, %struct.student* %67, i32 0, i32 6
  %69 = load %struct.student*, %struct.student** %68, align 8
  store %struct.student* %69, %struct.student** %5, align 8
  br label %70

70:                                               ; preds = %46
  %71 = load %struct.student*, %struct.student** %5, align 8
  %72 = icmp ne %struct.student* %71, null
  br i1 %72, label %46, label %73

73:                                               ; preds = %70
  br label %74

74:                                               ; preds = %73, %40
  ret void
}

; Function Attrs: nounwind
declare dso_local noalias i8* @malloc(i64) #1

declare dso_local i32 @__isoc99_scanf(i8*, ...) #2

; Function Attrs: nounwind readonly
declare dso_local i32 @strcmp(i8*, i8*) #3

declare dso_local i32 @printf(i8*, ...) #2


!llvm.module.flags = !{!0}
!llvm.ident = !{!1}

!0 = !{i32 1, !"wchar_size", i32 4}
!1 = !{!"clang version 10.0.0-4ubuntu1 "}
