; ModuleID = 'source-C-CXX/30/1459.c'
source_filename = "source-C-CXX/30/1459.c"
target datalayout = "e-m:e-p270:32:32-p271:32:32-p272:64:64-i64:64-f80:128-n8:16:32:64-S128"
target triple = "x86_64-pc-linux-gnu"

%struct.student = type { [10 x i8], [20 x i8], i8, i32, [10 x i8], [30 x i8], %struct.student* }

@.str = private unnamed_addr constant [3 x i8] c"%s\00", align 1
@.str.1 = private unnamed_addr constant [4 x i8] c"end\00", align 1
@.str.2 = private unnamed_addr constant [16 x i8] c" %s %c %d %s %s\00", align 1
@.str.3 = private unnamed_addr constant [19 x i8] c"%s %s %c %d %s %s\0A\00", align 1

; Function Attrs: nofree nounwind sspstrong uwtable
define dso_local void @main() local_unnamed_addr #0 {
  %1 = tail call noalias align 16 dereferenceable_or_null(100) i8* @malloc(i64 100) #4
  %2 = bitcast i8* %1 to %struct.student*
  %3 = getelementptr inbounds %struct.student, %struct.student* %2, i64 0, i32 0
  %4 = tail call i32 (i8*, ...) @__isoc99_scanf(i8* getelementptr inbounds ([3 x i8], [3 x i8]* @.str, i64 0, i64 0), [10 x i8]* %3)
  %5 = getelementptr inbounds %struct.student, %struct.student* %2, i64 0, i32 0, i64 0
  %6 = tail call i32 @strcmp(i8* noundef nonnull dereferenceable(1) %5, i8* noundef nonnull dereferenceable(4) getelementptr inbounds ([4 x i8], [4 x i8]* @.str.1, i64 0, i64 0)) #5
  %7 = icmp eq i32 %6, 0
  br i1 %7, label %47, label %8

8:                                                ; preds = %0, %21
  %9 = phi %struct.student* [ %24, %21 ], [ %2, %0 ]
  %10 = phi %struct.student* [ %9, %21 ], [ null, %0 ]
  %11 = phi %struct.student* [ %22, %21 ], [ null, %0 ]
  %12 = getelementptr inbounds %struct.student, %struct.student* %9, i64 0, i32 1
  %13 = getelementptr inbounds %struct.student, %struct.student* %9, i64 0, i32 2
  %14 = getelementptr inbounds %struct.student, %struct.student* %9, i64 0, i32 3
  %15 = getelementptr inbounds %struct.student, %struct.student* %9, i64 0, i32 4
  %16 = getelementptr inbounds %struct.student, %struct.student* %9, i64 0, i32 5
  %17 = tail call i32 (i8*, ...) @__isoc99_scanf(i8* getelementptr inbounds ([16 x i8], [16 x i8]* @.str.2, i64 0, i64 0), [20 x i8]* nonnull %12, i8* nonnull %13, i32* nonnull %14, [10 x i8]* nonnull %15, [30 x i8]* nonnull %16)
  %18 = icmp eq %struct.student* %11, null
  br i1 %18, label %21, label %19

19:                                               ; preds = %8
  %20 = getelementptr inbounds %struct.student, %struct.student* %9, i64 0, i32 6
  store %struct.student* %10, %struct.student** %20, align 16, !tbaa !5
  br label %21

21:                                               ; preds = %8, %19
  %22 = phi %struct.student* [ %11, %19 ], [ %9, %8 ]
  %23 = tail call noalias align 16 dereferenceable_or_null(100) i8* @malloc(i64 100) #4
  %24 = bitcast i8* %23 to %struct.student*
  %25 = getelementptr inbounds %struct.student, %struct.student* %24, i64 0, i32 0
  %26 = tail call i32 (i8*, ...) @__isoc99_scanf(i8* getelementptr inbounds ([3 x i8], [3 x i8]* @.str, i64 0, i64 0), [10 x i8]* %25)
  %27 = getelementptr inbounds %struct.student, %struct.student* %24, i64 0, i32 0, i64 0
  %28 = tail call i32 @strcmp(i8* noundef nonnull dereferenceable(1) %27, i8* noundef nonnull dereferenceable(4) getelementptr inbounds ([4 x i8], [4 x i8]* @.str.1, i64 0, i64 0)) #5
  %29 = icmp eq i32 %28, 0
  br i1 %29, label %30, label %8

30:                                               ; preds = %21
  %31 = icmp eq %struct.student* %9, null
  br i1 %31, label %47, label %32

32:                                               ; preds = %30, %32
  %33 = phi %struct.student* [ %45, %32 ], [ %9, %30 ]
  %34 = getelementptr inbounds %struct.student, %struct.student* %33, i64 0, i32 0, i64 0
  %35 = getelementptr inbounds %struct.student, %struct.student* %33, i64 0, i32 1, i64 0
  %36 = getelementptr inbounds %struct.student, %struct.student* %33, i64 0, i32 2
  %37 = load i8, i8* %36, align 2, !tbaa !11
  %38 = sext i8 %37 to i32
  %39 = getelementptr inbounds %struct.student, %struct.student* %33, i64 0, i32 3
  %40 = load i32, i32* %39, align 8, !tbaa !12
  %41 = getelementptr inbounds %struct.student, %struct.student* %33, i64 0, i32 4, i64 0
  %42 = getelementptr inbounds %struct.student, %struct.student* %33, i64 0, i32 5, i64 0
  %43 = tail call i32 (i8*, ...) @printf(i8* nonnull dereferenceable(1) getelementptr inbounds ([19 x i8], [19 x i8]* @.str.3, i64 0, i64 0), i8* %34, i8* nonnull %35, i32 %38, i32 %40, i8* nonnull %41, i8* nonnull %42)
  %44 = getelementptr inbounds %struct.student, %struct.student* %33, i64 0, i32 6
  %45 = load %struct.student*, %struct.student** %44, align 8, !tbaa !5
  %46 = icmp eq %struct.student* %45, null
  br i1 %46, label %47, label %32, !llvm.loop !13

47:                                               ; preds = %32, %0, %30
  ret void
}

; Function Attrs: inaccessiblememonly mustprogress nofree nounwind willreturn
declare noalias noundef align 16 i8* @malloc(i64 noundef) local_unnamed_addr #1

; Function Attrs: nofree nounwind
declare noundef i32 @__isoc99_scanf(i8* nocapture noundef readonly, ...) local_unnamed_addr #2

; Function Attrs: argmemonly mustprogress nofree nounwind readonly willreturn
declare i32 @strcmp(i8* nocapture, i8* nocapture) local_unnamed_addr #3

; Function Attrs: nofree nounwind
declare noundef i32 @printf(i8* nocapture noundef readonly, ...) local_unnamed_addr #2


!llvm.module.flags = !{!0, !1, !2, !3}
!llvm.ident = !{!4}

!0 = !{i32 1, !"wchar_size", i32 4}
!1 = !{i32 7, !"PIC Level", i32 2}
!2 = !{i32 7, !"PIE Level", i32 2}
!3 = !{i32 7, !"uwtable", i32 1}
!4 = !{!"clang version 13.0.0"}
!5 = !{!6, !10, i64 80}
!6 = !{!"student", !7, i64 0, !7, i64 10, !7, i64 30, !9, i64 32, !7, i64 36, !7, i64 46, !10, i64 80}
!7 = !{!"omnipotent char", !8, i64 0}
!8 = !{!"Simple C/C++ TBAA"}
!9 = !{!"int", !7, i64 0}
!10 = !{!"any pointer", !7, i64 0}
!11 = !{!6, !7, i64 30}
!12 = !{!6, !9, i64 32}
!13 = distinct !{!13, !14}
!14 = !{!"llvm.loop.mustprogress"}
